target datalayout = "e-m:e-p270:32:32-p271:32:32-p272:64:64-i64:64-i128:128-f80:128-n8:16:32:64-S128"
target triple = "x86_64-pc-linux-gnu"

%"struct.faiss::IndexAdditiveQuantizer" = type { %"struct.faiss::IndexFlatCodes", ptr }
%"struct.faiss::IndexFlatCodes" = type { %"struct.faiss::Index.base", i64, %"class.std::vector" }
%"struct.faiss::Index.base" = type <{ ptr, i32, [4 x i8], i64, i8, i8, [2 x i8], i32, float }>
%"class.std::vector" = type { %"struct.std::_Vector_base" }
%"struct.std::_Vector_base" = type { %"struct.std::_Vector_base<unsigned char, std::allocator<unsigned char>>::_Vector_impl" }
%"struct.std::_Vector_base<unsigned char, std::allocator<unsigned char>>::_Vector_impl" = type { %"struct.std::_Vector_base<unsigned char, std::allocator<unsigned char>>::_Vector_impl_data" }
%"struct.std::_Vector_base<unsigned char, std::allocator<unsigned char>>::_Vector_impl_data" = type { ptr, ptr, ptr }
%"struct.faiss::Quantizer" = type { ptr, i64, i64 }
%"class.std::vector.0" = type { %"struct.std::_Vector_base.1" }
%"struct.std::_Vector_base.1" = type { %"struct.std::_Vector_base<unsigned long, std::allocator<unsigned long>>::_Vector_impl" }
%"struct.std::_Vector_base<unsigned long, std::allocator<unsigned long>>::_Vector_impl" = type { %"struct.std::_Vector_base<unsigned long, std::allocator<unsigned long>>::_Vector_impl_data" }
%"struct.std::_Vector_base<unsigned long, std::allocator<unsigned long>>::_Vector_impl_data" = type { ptr, ptr, ptr }
%"struct.faiss::IndexFlat1D" = type { %"struct.faiss::IndexFlatL2", i8, %"class.std::vector.10" }
%"struct.faiss::IndexFlatL2" = type { %"struct.faiss::IndexFlat", %"class.std::vector.5" }
%"struct.faiss::IndexFlat" = type { %"struct.faiss::IndexFlatCodes" }
%"class.std::vector.10" = type { %"struct.std::_Vector_base.11" }
%"struct.std::_Vector_base.11" = type { %"struct.std::_Vector_base<long, std::allocator<long>>::_Vector_impl" }
%"struct.std::_Vector_base<long, std::allocator<long>>::_Vector_impl" = type { %"struct.std::_Vector_base<long, std::allocator<long>>::_Vector_impl_data" }
%"struct.std::_Vector_base<long, std::allocator<long>>::_Vector_impl_data" = type { ptr, ptr, ptr }
%"class.std::vector.5" = type { %"struct.std::_Vector_base.6" }
%"struct.std::_Vector_base.6" = type { %"struct.std::_Vector_base<float, std::allocator<float>>::_Vector_impl" }
%"struct.std::_Vector_base<float, std::allocator<float>>::_Vector_impl" = type { %"struct.std::_Vector_base<float, std::allocator<float>>::_Vector_impl_data" }
%"struct.std::_Vector_base<float, std::allocator<float>>::_Vector_impl_data" = type { ptr, ptr, ptr }
%"struct.faiss::Index" = type <{ ptr, i32, [4 x i8], i64, i8, i8, [2 x i8], i32, float, [4 x i8] }>
%"struct.faiss::AdditiveQuantizer.base" = type <{ %"struct.faiss::Quantizer", i64, %"class.std::vector.0", %"class.std::vector.5", %"class.std::vector.0", i64, i64, i64, i8, i8, i8, [5 x i8], %"struct.faiss::IndexFlat1D", %"class.std::vector.5", i64, i32, float, float }>
%"struct.faiss::IndexProductResidualQuantizer" = type { %"struct.faiss::IndexAdditiveQuantizer", %"struct.faiss::ProductResidualQuantizer" }
%"struct.faiss::ProductResidualQuantizer" = type { %"struct.faiss::ProductAdditiveQuantizer" }
%"struct.faiss::ProductAdditiveQuantizer" = type { %"struct.faiss::AdditiveQuantizer.base", i64, %"class.std::vector.38" }
%"class.std::vector.38" = type { %"struct.std::_Vector_base.39" }
%"struct.std::_Vector_base.39" = type { %"struct.std::_Vector_base<faiss::AdditiveQuantizer *, std::allocator<faiss::AdditiveQuantizer *>>::_Vector_impl" }
%"struct.std::_Vector_base<faiss::AdditiveQuantizer *, std::allocator<faiss::AdditiveQuantizer *>>::_Vector_impl" = type { %"struct.std::_Vector_base<faiss::AdditiveQuantizer *, std::allocator<faiss::AdditiveQuantizer *>>::_Vector_impl_data" }
%"struct.std::_Vector_base<faiss::AdditiveQuantizer *, std::allocator<faiss::AdditiveQuantizer *>>::_Vector_impl_data" = type { ptr, ptr, ptr }

; Function Attrs: mustprogress uwtable
define void @_ZN5faiss29IndexProductResidualQuantizerC2EimmmNS_10MetricTypeENS_17AdditiveQuantizer13Search_type_tE(ptr noundef nonnull align 8 dereferenceable(424) %0, i32 noundef %1, i64 noundef %2, i64 noundef %3, i64 noundef %4, i32 noundef %5, i32 noundef %6) unnamed_addr #2 align 2 personality ptr @__gxx_personality_v0 {
  %8 = alloca ptr, align 8
  %9 = alloca i32, align 4
  %10 = alloca i64, align 8
  %11 = alloca i64, align 8
  %12 = alloca i64, align 8
  %13 = alloca i32, align 4
  %14 = alloca i32, align 4
  %15 = alloca ptr, align 8
  %16 = alloca i32, align 4
  store ptr %0, ptr %8, align 8
  store i32 %1, ptr %9, align 4
  store i64 %2, ptr %10, align 8
  store i64 %3, ptr %11, align 8
  store i64 %4, ptr %12, align 8
  store i32 %5, ptr %13, align 4
  store i32 %6, ptr %14, align 4
  %17 = load ptr, ptr %8, align 8
  store ptr getelementptr inbounds ({ [25 x ptr] }, ptr @_ZTVN5faiss29IndexProductResidualQuantizerE, i32 0, i32 0, i32 2), ptr %17, align 8
  %18 = load i32, ptr %9, align 4
  %19 = sext i32 %18 to i64
  %20 = getelementptr inbounds %"struct.faiss::IndexProductResidualQuantizer", ptr %17, i32 0, i32 1
  %21 = load i32, ptr %13, align 4
  call void @_ZN5faiss22IndexAdditiveQuantizerC2ElPNS_17AdditiveQuantizerENS_10MetricTypeE(ptr noundef nonnull align 8 dereferenceable(80) %17, i64 noundef %19, ptr noundef %20, i32 noundef %21)
  store ptr getelementptr inbounds ({ [25 x ptr] }, ptr @_ZTVN5faiss29IndexProductResidualQuantizerE, i32 0, i32 0, i32 2), ptr %17, align 8
  %22 = getelementptr inbounds %"struct.faiss::IndexProductResidualQuantizer", ptr %17, i32 0, i32 1
  %23 = load i32, ptr %9, align 4
  %24 = sext i32 %23 to i64
  %25 = load i64, ptr %10, align 8
  %26 = load i64, ptr %11, align 8
  %27 = load i64, ptr %12, align 8
  %28 = load i32, ptr %14, align 4
  invoke void @_ZN5faiss24ProductResidualQuantizerC1EmmmmNS_17AdditiveQuantizer13Search_type_tE(ptr noundef nonnull align 8 dereferenceable(344) %22, i64 noundef %24, i64 noundef %25, i64 noundef %26, i64 noundef %27, i32 noundef %28)
          to label %29 unwind label %35

29:                                               ; preds = %7
  %30 = getelementptr inbounds %"struct.faiss::IndexProductResidualQuantizer", ptr %17, i32 0, i32 1
  %31 = getelementptr inbounds %"struct.faiss::Quantizer", ptr %30, i32 0, i32 2
  %32 = load i64, ptr %31, align 8
  %33 = getelementptr inbounds %"struct.faiss::IndexFlatCodes", ptr %17, i32 0, i32 1
  store i64 %32, ptr %33, align 8
  %34 = getelementptr inbounds %"struct.faiss::Index", ptr %17, i32 0, i32 5
  store i8 0, ptr %34, align 1
  ret void

35:                                               ; preds = %7
  %36 = landingpad { ptr, i32 }
          cleanup
  %37 = extractvalue { ptr, i32 } %36, 0
  store ptr %37, ptr %15, align 8
  %38 = extractvalue { ptr, i32 } %36, 1
  store i32 %38, ptr %16, align 4
  call void @_ZN5faiss22IndexAdditiveQuantizerD2Ev(ptr noundef nonnull align 8 dereferenceable(80) %17) #11
  br label %39

39:                                               ; preds = %35
  %40 = load ptr, ptr %15, align 8
  %41 = load i32, ptr %16, align 4
  %42 = insertvalue { ptr, i32 } poison, ptr %40, 0
  %43 = insertvalue { ptr, i32 } %42, i32 %41, 1
  resume { ptr, i32 } %43
}